target datalayout = "e-m:e-p270:32:32-p271:32:32-p272:64:64-i64:64-i128:128-f80:128-n8:16:32:64-S128"
target triple = "x86_64-pc-linux-gnu"

%struct.Aig_VSig_t_ = type { i32, [12 x i32] }

; Function Attrs: inlinehint nounwind uwtable
define internal i32 @Kit_TruthWordNum(i32 noundef %0) #5 {
  %2 = alloca i32, align 4
  store i32 %0, ptr %2, align 4, !tbaa !25
  %3 = load i32, ptr %2, align 4, !tbaa !25
  %4 = icmp sle i32 %3, 5
  br i1 %4, label %5, label %6

5:                                                ; preds = %1
  br label %10

6:                                                ; preds = %1
  %7 = load i32, ptr %2, align 4, !tbaa !25
  %8 = sub nsw i32 %7, 5
  %9 = shl i32 1, %8
  br label %10

10:                                               ; preds = %6, %5
  %11 = phi i32 [ 1, %5 ], [ %9, %6 ]
  ret i32 %11
}

; Function Attrs: inlinehint nounwind uwtable
define internal void @Kit_TruthCopy(ptr noundef %0, ptr noundef %1, i32 noundef %2) #5 {
  %4 = alloca ptr, align 8
  %5 = alloca ptr, align 8
  %6 = alloca i32, align 4
  %7 = alloca i32, align 4
  store ptr %0, ptr %4, align 8, !tbaa !29
  store ptr %1, ptr %5, align 8, !tbaa !29
  store i32 %2, ptr %6, align 4, !tbaa !25
  call void @llvm.lifetime.start.p0(i64 4, ptr %7) #10
  %8 = load i32, ptr %6, align 4, !tbaa !25
  %9 = call i32 @Kit_TruthWordNum(i32 noundef %8)
  %10 = sub nsw i32 %9, 1
  store i32 %10, ptr %7, align 4, !tbaa !25
  br label %11

11:                                               ; preds = %24, %3
  %12 = load i32, ptr %7, align 4, !tbaa !25
  %13 = icmp sge i32 %12, 0
  br i1 %13, label %14, label %27

14:                                               ; preds = %11
  %15 = load ptr, ptr %5, align 8, !tbaa !29
  %16 = load i32, ptr %7, align 4, !tbaa !25
  %17 = sext i32 %16 to i64
  %18 = getelementptr inbounds i32, ptr %15, i64 %17
  %19 = load i32, ptr %18, align 4, !tbaa !25
  %20 = load ptr, ptr %4, align 8, !tbaa !29
  %21 = load i32, ptr %7, align 4, !tbaa !25
  %22 = sext i32 %21 to i64
  %23 = getelementptr inbounds i32, ptr %20, i64 %22
  store i32 %19, ptr %23, align 4, !tbaa !25
  br label %24

24:                                               ; preds = %14
  %25 = load i32, ptr %7, align 4, !tbaa !25
  %26 = add nsw i32 %25, -1
  store i32 %26, ptr %7, align 4, !tbaa !25
  br label %11, !llvm.loop !73

27:                                               ; preds = %11
  call void @llvm.lifetime.end.p0(i64 4, ptr %7) #10
  ret void
}

; Function Attrs: inlinehint nounwind uwtable
define internal i32 @Aig_RManCompareSigs(ptr noundef %0, ptr noundef %1, i32 noundef %2) #5 {
  %4 = alloca ptr, align 8
  %5 = alloca ptr, align 8
  %6 = alloca i32, align 4
  store ptr %0, ptr %4, align 8, !tbaa !54
  store ptr %1, ptr %5, align 8, !tbaa !54
  store i32 %2, ptr %6, align 4, !tbaa !25
  %7 = load ptr, ptr %4, align 8, !tbaa !54
  %8 = load ptr, ptr %5, align 8, !tbaa !54
  %9 = call i32 @memcmp(ptr noundef %7, ptr noundef %8, i64 noundef 4) #13
  ret i32 %9
}

; Function Attrs: nounwind uwtable
define i32 @Aig_RManSemiCanonicize(ptr noundef %0, ptr noundef %1, i32 noundef %2, ptr noundef %3, ptr noundef %4, i32 noundef %5) #0 {
  %7 = alloca ptr, align 8
  %8 = alloca ptr, align 8
  %9 = alloca i32, align 4
  %10 = alloca ptr, align 8
  %11 = alloca ptr, align 8
  %12 = alloca i32, align 4
  %13 = alloca %struct.Aig_VSig_t_, align 4
  %14 = alloca i32, align 4
  %15 = alloca i32, align 4
  %16 = alloca i32, align 4
  %17 = alloca i32, align 4
  %18 = alloca ptr, align 8
  %19 = alloca i32, align 4
  store ptr %0, ptr %7, align 8, !tbaa !29
  store ptr %1, ptr %8, align 8, !tbaa !29
  store i32 %2, ptr %9, align 4, !tbaa !25
  store ptr %3, ptr %10, align 8, !tbaa !66
  store ptr %4, ptr %11, align 8, !tbaa !54
  store i32 %5, ptr %12, align 4, !tbaa !25
  call void @llvm.lifetime.start.p0(i64 52, ptr %13) #10
  call void @llvm.lifetime.start.p0(i64 4, ptr %14) #10
  call void @llvm.lifetime.start.p0(i64 4, ptr %15) #10
  call void @llvm.lifetime.start.p0(i64 4, ptr %16) #10
  call void @llvm.lifetime.start.p0(i64 4, ptr %17) #10
  call void @llvm.lifetime.start.p0(i64 8, ptr %18) #10
  call void @llvm.lifetime.start.p0(i64 4, ptr %19) #10
  store i32 0, ptr %19, align 4, !tbaa !25
  %20 = load ptr, ptr %8, align 8, !tbaa !29
  %21 = load i32, ptr %9, align 4, !tbaa !25
  %22 = load ptr, ptr %11, align 8, !tbaa !54
  %23 = load ptr, ptr %7, align 8, !tbaa !29
  call void @Aig_RManComputeVSigs(ptr noundef %20, i32 noundef %21, ptr noundef %22, ptr noundef %23)
  store i32 0, ptr %14, align 4, !tbaa !25
  br label %24

24:                                               ; preds = %77, %6
  %25 = load i32, ptr %14, align 4, !tbaa !25
  %26 = load i32, ptr %9, align 4, !tbaa !25
  %27 = icmp slt i32 %25, %26
  br i1 %27, label %28, label %80

28:                                               ; preds = %24
  %29 = load ptr, ptr %11, align 8, !tbaa !54
  %30 = load i32, ptr %14, align 4, !tbaa !25
  %31 = mul nsw i32 2, %30
  %32 = add nsw i32 %31, 0
  %33 = sext i32 %32 to i64
  %34 = getelementptr inbounds %struct.Aig_VSig_t_, ptr %29, i64 %33
  %35 = load ptr, ptr %11, align 8, !tbaa !54
  %36 = load i32, ptr %14, align 4, !tbaa !25
  %37 = mul nsw i32 2, %36
  %38 = add nsw i32 %37, 1
  %39 = sext i32 %38 to i64
  %40 = getelementptr inbounds %struct.Aig_VSig_t_, ptr %35, i64 %39
  %41 = load i32, ptr %9, align 4, !tbaa !25
  %42 = call i32 @Aig_RManCompareSigs(ptr noundef %34, ptr noundef %40, i32 noundef %41)
  %43 = icmp sle i32 %42, 0
  br i1 %43, label %44, label %45

44:                                               ; preds = %28
  br label %77

45:                                               ; preds = %28
  %46 = load i32, ptr %14, align 4, !tbaa !25
  %47 = shl i32 1, %46
  %48 = load i32, ptr %19, align 4, !tbaa !25
  %49 = or i32 %48, %47
  store i32 %49, ptr %19, align 4, !tbaa !25
  %50 = load ptr, ptr %11, align 8, !tbaa !54
  %51 = load i32, ptr %14, align 4, !tbaa !25
  %52 = mul nsw i32 2, %51
  %53 = add nsw i32 %52, 0
  %54 = sext i32 %53 to i64
  %55 = getelementptr inbounds %struct.Aig_VSig_t_, ptr %50, i64 %54
  call void @llvm.memcpy.p0.p0.i64(ptr align 4 %13, ptr align 4 %55, i64 52, i1 false), !tbaa.struct !68
  %56 = load ptr, ptr %11, align 8, !tbaa !54
  %57 = load i32, ptr %14, align 4, !tbaa !25
  %58 = mul nsw i32 2, %57
  %59 = add nsw i32 %58, 0
  %60 = sext i32 %59 to i64
  %61 = getelementptr inbounds %struct.Aig_VSig_t_, ptr %56, i64 %60
  %62 = load ptr, ptr %11, align 8, !tbaa !54
  %63 = load i32, ptr %14, align 4, !tbaa !25
  %64 = mul nsw i32 2, %63
  %65 = add nsw i32 %64, 1
  %66 = sext i32 %65 to i64
  %67 = getelementptr inbounds %struct.Aig_VSig_t_, ptr %62, i64 %66
  call void @llvm.memcpy.p0.p0.i64(ptr align 4 %61, ptr align 4 %67, i64 52, i1 false), !tbaa.struct !68
  %68 = load ptr, ptr %11, align 8, !tbaa !54
  %69 = load i32, ptr %14, align 4, !tbaa !25
  %70 = mul nsw i32 2, %69
  %71 = add nsw i32 %70, 1
  %72 = sext i32 %71 to i64
  %73 = getelementptr inbounds %struct.Aig_VSig_t_, ptr %68, i64 %72
  call void @llvm.memcpy.p0.p0.i64(ptr align 4 %73, ptr align 4 %13, i64 52, i1 false), !tbaa.struct !68
  %74 = load ptr, ptr %8, align 8, !tbaa !29
  %75 = load i32, ptr %9, align 4, !tbaa !25
  %76 = load i32, ptr %14, align 4, !tbaa !25
  call void @Kit_TruthChangePhase(ptr noundef %74, i32 noundef %75, i32 noundef %76)
  br label %77

77:                                               ; preds = %45, %44
  %78 = load i32, ptr %14, align 4, !tbaa !25
  %79 = add nsw i32 %78, 1
  store i32 %79, ptr %14, align 4, !tbaa !25
  br label %24, !llvm.loop !70

80:                                               ; preds = %24
  store i32 0, ptr %17, align 4, !tbaa !25
  br label %81

81:                                               ; preds = %188, %80
  store i32 0, ptr %16, align 4, !tbaa !25
  store i32 0, ptr %14, align 4, !tbaa !25
  br label %82

82:                                               ; preds = %184, %81
  %83 = load i32, ptr %14, align 4, !tbaa !25
  %84 = load i32, ptr %9, align 4, !tbaa !25
  %85 = sub nsw i32 %84, 1
  %86 = icmp slt i32 %83, %85
  br i1 %86, label %87, label %187

87:                                               ; preds = %82
  %88 = load ptr, ptr %11, align 8, !tbaa !54
  %89 = load i32, ptr %14, align 4, !tbaa !25
  %90 = mul nsw i32 2, %89
  %91 = sext i32 %90 to i64
  %92 = getelementptr inbounds %struct.Aig_VSig_t_, ptr %88, i64 %91
  %93 = load ptr, ptr %11, align 8, !tbaa !54
  %94 = load i32, ptr %14, align 4, !tbaa !25
  %95 = add nsw i32 %94, 1
  %96 = mul nsw i32 2, %95
  %97 = sext i32 %96 to i64
  %98 = getelementptr inbounds %struct.Aig_VSig_t_, ptr %93, i64 %97
  %99 = load i32, ptr %9, align 4, !tbaa !25
  %100 = call i32 @Aig_RManCompareSigs(ptr noundef %92, ptr noundef %98, i32 noundef %99)
  %101 = icmp sle i32 %100, 0
  br i1 %101, label %102, label %103

102:                                              ; preds = %87
  br label %184

103:                                              ; preds = %87
  %104 = load i32, ptr %17, align 4, !tbaa !25
  %105 = add nsw i32 %104, 1
  store i32 %105, ptr %17, align 4, !tbaa !25
  store i32 1, ptr %16, align 4, !tbaa !25
  %106 = load ptr, ptr %10, align 8, !tbaa !66
  %107 = load i32, ptr %14, align 4, !tbaa !25
  %108 = sext i32 %107 to i64
  %109 = getelementptr inbounds i8, ptr %106, i64 %108
  %110 = load i8, ptr %109, align 1, !tbaa !69
  %111 = sext i8 %110 to i32
  store i32 %111, ptr %15, align 4, !tbaa !25
  %112 = load ptr, ptr %10, align 8, !tbaa !66
  %113 = load i32, ptr %14, align 4, !tbaa !25
  %114 = add nsw i32 %113, 1
  %115 = sext i32 %114 to i64
  %116 = getelementptr inbounds i8, ptr %112, i64 %115
  %117 = load i8, ptr %116, align 1, !tbaa !69
  %118 = load ptr, ptr %10, align 8, !tbaa !66
  %119 = load i32, ptr %14, align 4, !tbaa !25
  %120 = sext i32 %119 to i64
  %121 = getelementptr inbounds i8, ptr %118, i64 %120
  store i8 %117, ptr %121, align 1, !tbaa !69
  %122 = load i32, ptr %15, align 4, !tbaa !25
  %123 = trunc i32 %122 to i8
  %124 = load ptr, ptr %10, align 8, !tbaa !66
  %125 = load i32, ptr %14, align 4, !tbaa !25
  %126 = add nsw i32 %125, 1
  %127 = sext i32 %126 to i64
  %128 = getelementptr inbounds i8, ptr %124, i64 %127
  store i8 %123, ptr %128, align 1, !tbaa !69
  %129 = load ptr, ptr %11, align 8, !tbaa !54
  %130 = load i32, ptr %14, align 4, !tbaa !25
  %131 = mul nsw i32 2, %130
  %132 = sext i32 %131 to i64
  %133 = getelementptr inbounds %struct.Aig_VSig_t_, ptr %129, i64 %132
  call void @llvm.memcpy.p0.p0.i64(ptr align 4 %13, ptr align 4 %133, i64 52, i1 false), !tbaa.struct !68
  %134 = load ptr, ptr %11, align 8, !tbaa !54
  %135 = load i32, ptr %14, align 4, !tbaa !25
  %136 = mul nsw i32 2, %135
  %137 = sext i32 %136 to i64
  %138 = getelementptr inbounds %struct.Aig_VSig_t_, ptr %134, i64 %137
  %139 = load ptr, ptr %11, align 8, !tbaa !54
  %140 = load i32, ptr %14, align 4, !tbaa !25
  %141 = add nsw i32 %140, 1
  %142 = mul nsw i32 2, %141
  %143 = sext i32 %142 to i64
  %144 = getelementptr inbounds %struct.Aig_VSig_t_, ptr %139, i64 %143
  call void @llvm.memcpy.p0.p0.i64(ptr align 4 %138, ptr align 4 %144, i64 52, i1 false), !tbaa.struct !68
  %145 = load ptr, ptr %11, align 8, !tbaa !54
  %146 = load i32, ptr %14, align 4, !tbaa !25
  %147 = add nsw i32 %146, 1
  %148 = mul nsw i32 2, %147
  %149 = sext i32 %148 to i64
  %150 = getelementptr inbounds %struct.Aig_VSig_t_, ptr %145, i64 %149
  call void @llvm.memcpy.p0.p0.i64(ptr align 4 %150, ptr align 4 %13, i64 52, i1 false), !tbaa.struct !68
  %151 = load ptr, ptr %11, align 8, !tbaa !54
  %152 = load i32, ptr %14, align 4, !tbaa !25
  %153 = mul nsw i32 2, %152
  %154 = add nsw i32 %153, 1
  %155 = sext i32 %154 to i64
  %156 = getelementptr inbounds %struct.Aig_VSig_t_, ptr %151, i64 %155
  call void @llvm.memcpy.p0.p0.i64(ptr align 4 %13, ptr align 4 %156, i64 52, i1 false), !tbaa.struct !68
  %157 = load ptr, ptr %11, align 8, !tbaa !54
  %158 = load i32, ptr %14, align 4, !tbaa !25
  %159 = mul nsw i32 2, %158
  %160 = add nsw i32 %159, 1
  %161 = sext i32 %160 to i64
  %162 = getelementptr inbounds %struct.Aig_VSig_t_, ptr %157, i64 %161
  %163 = load ptr, ptr %11, align 8, !tbaa !54
  %164 = load i32, ptr %14, align 4, !tbaa !25
  %165 = add nsw i32 %164, 1
  %166 = mul nsw i32 2, %165
  %167 = add nsw i32 %166, 1
  %168 = sext i32 %167 to i64
  %169 = getelementptr inbounds %struct.Aig_VSig_t_, ptr %163, i64 %168
  call void @llvm.memcpy.p0.p0.i64(ptr align 4 %162, ptr align 4 %169, i64 52, i1 false), !tbaa.struct !68
  %170 = load ptr, ptr %11, align 8, !tbaa !54
  %171 = load i32, ptr %14, align 4, !tbaa !25
  %172 = add nsw i32 %171, 1
  %173 = mul nsw i32 2, %172
  %174 = add nsw i32 %173, 1
  %175 = sext i32 %174 to i64
  %176 = getelementptr inbounds %struct.Aig_VSig_t_, ptr %170, i64 %175
  call void @llvm.memcpy.p0.p0.i64(ptr align 4 %176, ptr align 4 %13, i64 52, i1 false), !tbaa.struct !68
  %177 = load ptr, ptr %7, align 8, !tbaa !29
  %178 = load ptr, ptr %8, align 8, !tbaa !29
  %179 = load i32, ptr %9, align 4, !tbaa !25
  %180 = load i32, ptr %14, align 4, !tbaa !25
  call void @Kit_TruthSwapAdjacentVars(ptr noundef %177, ptr noundef %178, i32 noundef %179, i32 noundef %180)
  %181 = load ptr, ptr %8, align 8, !tbaa !29
  store ptr %181, ptr %18, align 8, !tbaa !29
  %182 = load ptr, ptr %7, align 8, !tbaa !29
  store ptr %182, ptr %8, align 8, !tbaa !29
  %183 = load ptr, ptr %18, align 8, !tbaa !29
  store ptr %183, ptr %7, align 8, !tbaa !29
  br label %184

184:                                              ; preds = %103, %102
  %185 = load i32, ptr %14, align 4, !tbaa !25
  %186 = add nsw i32 %185, 1
  store i32 %186, ptr %14, align 4, !tbaa !25
  br label %82, !llvm.loop !71

187:                                              ; preds = %82
  br label %188

188:                                              ; preds = %187
  %189 = load i32, ptr %16, align 4, !tbaa !25
  %190 = icmp ne i32 %189, 0
  br i1 %190, label %81, label %191, !llvm.loop !72

191:                                              ; preds = %188
  %192 = load i32, ptr %12, align 4, !tbaa !25
  %193 = load i32, ptr %17, align 4, !tbaa !25
  %194 = and i32 %193, 1
  %195 = icmp ne i32 %194, 0
  %196 = xor i1 %195, true
  %197 = zext i1 %196 to i32
  %198 = xor i32 %192, %197
  %199 = icmp ne i32 %198, 0
  br i1 %199, label %200, label %204

200:                                              ; preds = %191
  %201 = load ptr, ptr %7, align 8, !tbaa !29
  %202 = load ptr, ptr %8, align 8, !tbaa !29
  %203 = load i32, ptr %9, align 4, !tbaa !25
  call void @Kit_TruthCopy(ptr noundef %201, ptr noundef %202, i32 noundef %203)
  br label %204

204:                                              ; preds = %200, %191
  %205 = load i32, ptr %19, align 4, !tbaa !25
  call void @llvm.lifetime.end.p0(i64 4, ptr %19) #10
  call void @llvm.lifetime.end.p0(i64 8, ptr %18) #10
  call void @llvm.lifetime.end.p0(i64 4, ptr %17) #10
  call void @llvm.lifetime.end.p0(i64 4, ptr %16) #10
  call void @llvm.lifetime.end.p0(i64 4, ptr %15) #10
  call void @llvm.lifetime.end.p0(i64 4, ptr %14) #10
  call void @llvm.lifetime.end.p0(i64 52, ptr %13) #10
  ret i32 %205
}