; Function Attrs: nounwind uwtable
define i32 @Aig_RManSemiCanonicize(ptr noundef %0, ptr noundef %1, i32 noundef %2, ptr noundef captures(none) %3, ptr noundef %4, i32 noundef %5) local_unnamed_addr #0 {
  %7 = alloca %struct.Aig_VSig_t_, align 4
  call void @llvm.lifetime.start.p0(i64 52, ptr nonnull %7)
  tail call void @Aig_RManComputeVSigs(ptr noundef %1, i32 noundef %2, ptr noundef %4, ptr noundef %0)
  %8 = icmp sgt i32 %2, 0
  br i1 %8, label %.lr.ph.preheader, label %.split.us

.lr.ph.preheader:                                 ; preds = %6
  %wide.trip.count = zext nneg i32 %2 to i64
  br label %.lr.ph

.preheader:                                       ; preds = %38
  %.not = icmp eq i32 %2, 1
  br i1 %.not, label %.split.us, label %.lr.ph95.us.preheader

.lr.ph95.us.preheader:                            ; preds = %.preheader
  %9 = add nsw i32 %2, -1
  %wide.trip.count106 = zext i32 %9 to i64
  br label %.lr.ph95.us

.lr.ph95.us:                                      ; preds = %.lr.ph95.us.backedge, %.lr.ph95.us.preheader
  %indvars.iv103 = phi i64 [ 0, %.lr.ph95.us.preheader ], [ %indvars.iv103.be, %.lr.ph95.us.backedge ]
  %.17394.us = phi ptr [ %0, %.lr.ph95.us.preheader ], [ %.2.us, %.lr.ph95.us.backedge ]
  %.17593.us = phi i32 [ 0, %.lr.ph95.us.preheader ], [ %.276.us, %.lr.ph95.us.backedge ]
  %.07792.us = phi i32 [ 0, %.lr.ph95.us.preheader ], [ %.07792.us.be, %.lr.ph95.us.backedge ]
  %.18091.us = phi ptr [ %1, %.lr.ph95.us.preheader ], [ %.281.us, %.lr.ph95.us.backedge ]
  %10 = shl nuw nsw i64 %indvars.iv103, 1
  %11 = getelementptr inbounds nuw %struct.Aig_VSig_t_, ptr %4, i64 %10
  %indvars.iv.next104 = add nuw nsw i64 %indvars.iv103, 1
  %12 = shl nuw nsw i64 %indvars.iv.next104, 1
  %13 = getelementptr inbounds nuw %struct.Aig_VSig_t_, ptr %4, i64 %12
  %14 = tail call i32 @memcmp(ptr noundef nonnull readonly dereferenceable(4) %11, ptr noundef nonnull readonly dereferenceable(4) %13, i64 noundef 4) #18
  %15 = icmp slt i32 %14, 1
  br i1 %15, label %27, label %16

16:                                               ; preds = %.lr.ph95.us
  %17 = add nsw i32 %.17593.us, 1
  %18 = getelementptr inbounds nuw i8, ptr %3, i64 %indvars.iv103
  %19 = load i8, ptr %18, align 1, !tbaa !57
  %20 = getelementptr inbounds nuw i8, ptr %3, i64 %indvars.iv.next104
  %21 = load i8, ptr %20, align 1, !tbaa !57
  store i8 %21, ptr %18, align 1, !tbaa !57
  store i8 %19, ptr %20, align 1, !tbaa !57
  call void @llvm.memcpy.p0.p0.i64(ptr noundef nonnull align 4 dereferenceable(52) %7, ptr noundef nonnull align 4 dereferenceable(52) %11, i64 52, i1 false), !tbaa.struct !58
  tail call void @llvm.memcpy.p0.p0.i64(ptr noundef nonnull align 4 dereferenceable(52) %11, ptr noundef nonnull align 4 dereferenceable(52) %13, i64 52, i1 false), !tbaa.struct !58
  call void @llvm.memcpy.p0.p0.i64(ptr noundef nonnull align 4 dereferenceable(52) %13, ptr noundef nonnull align 4 dereferenceable(52) %7, i64 52, i1 false), !tbaa.struct !58
  %22 = or disjoint i64 %10, 1
  %23 = getelementptr inbounds nuw %struct.Aig_VSig_t_, ptr %4, i64 %22
  call void @llvm.memcpy.p0.p0.i64(ptr noundef nonnull align 4 dereferenceable(52) %7, ptr noundef nonnull align 4 dereferenceable(52) %23, i64 52, i1 false), !tbaa.struct !58
  %24 = or disjoint i64 %12, 1
  %25 = getelementptr inbounds nuw %struct.Aig_VSig_t_, ptr %4, i64 %24
  tail call void @llvm.memcpy.p0.p0.i64(ptr noundef nonnull align 4 dereferenceable(52) %23, ptr noundef nonnull align 4 dereferenceable(52) %25, i64 52, i1 false), !tbaa.struct !58
  call void @llvm.memcpy.p0.p0.i64(ptr noundef nonnull align 4 dereferenceable(52) %25, ptr noundef nonnull align 4 dereferenceable(52) %7, i64 52, i1 false), !tbaa.struct !58
  %26 = trunc nuw nsw i64 %indvars.iv103 to i32
  tail call void @Kit_TruthSwapAdjacentVars(ptr noundef %.17394.us, ptr noundef %.18091.us, i32 noundef %2, i32 noundef %26) #16
  br label %27

27:                                               ; preds = %16, %.lr.ph95.us
  %.281.us = phi ptr [ %.18091.us, %.lr.ph95.us ], [ %.17394.us, %16 ]
  %.178.us = phi i32 [ %.07792.us, %.lr.ph95.us ], [ 1, %16 ]
  %.276.us = phi i32 [ %.17593.us, %.lr.ph95.us ], [ %17, %16 ]
  %.2.us = phi ptr [ %.17394.us, %.lr.ph95.us ], [ %.18091.us, %16 ]
  %exitcond107.not = icmp eq i64 %indvars.iv.next104, %wide.trip.count106
  br i1 %exitcond107.not, label %._crit_edge.us, label %.lr.ph95.us.backedge

.lr.ph95.us.backedge:                             ; preds = %27, %._crit_edge.us
  %indvars.iv103.be = phi i64 [ %indvars.iv.next104, %27 ], [ 0, %._crit_edge.us ]
  %.07792.us.be = phi i32 [ %.178.us, %27 ], [ 0, %._crit_edge.us ]
  br label %.lr.ph95.us, !llvm.loop !59

._crit_edge.us:                                   ; preds = %27
  %.not.us = icmp eq i32 %.178.us, 0
  br i1 %.not.us, label %.split.us.loopexit, label %.lr.ph95.us.backedge

.lr.ph:                                           ; preds = %.lr.ph.preheader, %38
  %indvars.iv = phi i64 [ 0, %.lr.ph.preheader ], [ %indvars.iv.next, %38 ]
  %.089 = phi i32 [ 0, %.lr.ph.preheader ], [ %.1, %38 ]
  %28 = shl nuw nsw i64 %indvars.iv, 1
  %29 = getelementptr inbounds nuw %struct.Aig_VSig_t_, ptr %4, i64 %28
  %30 = or disjoint i64 %28, 1
  %31 = getelementptr inbounds nuw %struct.Aig_VSig_t_, ptr %4, i64 %30
  %32 = tail call i32 @memcmp(ptr noundef nonnull readonly dereferenceable(4) %29, ptr noundef nonnull readonly dereferenceable(4) %31, i64 noundef 4) #18
  %33 = icmp slt i32 %32, 1
  br i1 %33, label %38, label %34

34:                                               ; preds = %.lr.ph
  %35 = trunc nuw nsw i64 %indvars.iv to i32
  %36 = shl nuw i32 1, %35
  %37 = or i32 %.089, %36
  call void @llvm.memcpy.p0.p0.i64(ptr noundef nonnull align 4 dereferenceable(52) %7, ptr noundef nonnull align 4 dereferenceable(52) %29, i64 52, i1 false), !tbaa.struct !58
  tail call void @llvm.memcpy.p0.p0.i64(ptr noundef nonnull align 4 dereferenceable(52) %29, ptr noundef nonnull align 4 dereferenceable(52) %31, i64 52, i1 false), !tbaa.struct !58
  call void @llvm.memcpy.p0.p0.i64(ptr noundef nonnull align 4 dereferenceable(52) %31, ptr noundef nonnull align 4 dereferenceable(52) %7, i64 52, i1 false), !tbaa.struct !58
  tail call void @Kit_TruthChangePhase(ptr noundef %1, i32 noundef %2, i32 noundef %35) #16
  br label %38

38:                                               ; preds = %.lr.ph, %34
  %.1 = phi i32 [ %.089, %.lr.ph ], [ %37, %34 ]
  %indvars.iv.next = add nuw nsw i64 %indvars.iv, 1
  %exitcond.not = icmp eq i64 %indvars.iv.next, %wide.trip.count
  br i1 %exitcond.not, label %.preheader, label %.lr.ph, !llvm.loop !60

.split.us.loopexit:                               ; preds = %._crit_edge.us
  %39 = and i32 %.276.us, 1
  br label %.split.us

.split.us:                                        ; preds = %6, %.split.us.loopexit, %.preheader
  %.0.lcssa109 = phi i32 [ %.1, %.preheader ], [ %.1, %.split.us.loopexit ], [ 0, %6 ]
  %.us-phi = phi ptr [ %1, %.preheader ], [ %.281.us, %.split.us.loopexit ], [ %1, %6 ]
  %.us-phi100 = phi i32 [ 0, %.preheader ], [ %39, %.split.us.loopexit ], [ 0, %6 ]
  %.us-phi101 = phi ptr [ %0, %.preheader ], [ %.2.us, %.split.us.loopexit ], [ %0, %6 ]
  %40 = xor i32 %.us-phi100, %5
  %.not87 = icmp eq i32 %40, 1
  br i1 %.not87, label %Kit_TruthCopy.exit, label %41

41:                                               ; preds = %.split.us
  %42 = icmp slt i32 %2, 6
  %43 = add nsw i32 %2, -5
  %44 = shl nuw i32 1, %43
  %spec.select.i = select i1 %42, i32 1, i32 %44
  %45 = icmp sgt i32 %spec.select.i, 0
  br i1 %45, label %select.unfold.preheader.i, label %Kit_TruthCopy.exit

select.unfold.preheader.i:                        ; preds = %41
  %46 = zext nneg i32 %spec.select.i to i64
  br label %select.unfold.i

select.unfold.i:                                  ; preds = %select.unfold.i, %select.unfold.preheader.i
  %indvars.iv.i = phi i64 [ %46, %select.unfold.preheader.i ], [ %indvars.iv.next.i, %select.unfold.i ]
  %indvars.iv.next.i = add nsw i64 %indvars.iv.i, -1
  %47 = getelementptr inbounds nuw i32, ptr %.us-phi, i64 %indvars.iv.next.i
  %48 = load i32, ptr %47, align 4, !tbaa !24
  %49 = getelementptr inbounds nuw i32, ptr %.us-phi101, i64 %indvars.iv.next.i
  store i32 %48, ptr %49, align 4, !tbaa !24
  %50 = icmp samesign ugt i64 %indvars.iv.i, 1
  br i1 %50, label %select.unfold.i, label %Kit_TruthCopy.exit, !llvm.loop !61

Kit_TruthCopy.exit:                               ; preds = %select.unfold.i, %41, %.split.us
  call void @llvm.lifetime.end.p0(i64 52, ptr nonnull %7)
  ret i32 %.0.lcssa109
}